; Function Attrs: mustprogress uwtable
define noundef zeroext i1 @_ZNK15ColumnListModel15canDropMimeDataEPK9QMimeDataN2Qt10DropActionEiiRK11QModelIndex(ptr nocapture noundef nonnull readnone align 8 dereferenceable(16) %0, ptr noundef %1, i32 noundef %2, i32 noundef %3, i32 noundef %4, ptr nocapture noundef nonnull readonly align 8 dereferenceable(24) %5) unnamed_addr #2 align 2 {
  %7 = load i32, ptr %5, align 8
  %8 = icmp sgt i32 %7, -1
  %9 = getelementptr inbounds i8, ptr %5, i64 4
  %10 = load i32, ptr %9, align 4
  %11 = icmp sgt i32 %10, -1
  %or.cond.i = select i1 %8, i1 %11, i1 false
  %12 = getelementptr inbounds i8, ptr %5, i64 16
  %13 = load ptr, ptr %12, align 8
  %14 = icmp ne ptr %13, null
  %or.cond = select i1 %or.cond.i, i1 %14, i1 false
  br i1 %or.cond, label %19, label %_ZNK11QModelIndex7isValidEv.exit.thread

_ZNK11QModelIndex7isValidEv.exit.thread:          ; preds = %6
  %15 = load ptr, ptr %1, align 8
  %16 = getelementptr inbounds i8, ptr %15, i64 96
  %17 = load ptr, ptr %16, align 8
  %18 = tail call noundef zeroext i1 %17(ptr noundef nonnull align 8 dereferenceable(16) %1, ptr noundef nonnull align 8 dereferenceable(24) @_ZN17WiresharkMimeData18ColumnListMimeTypeE)
  br label %19

19:                                               ; preds = %6, %_ZNK11QModelIndex7isValidEv.exit.thread
  %.0 = phi i1 [ %18, %_ZNK11QModelIndex7isValidEv.exit.thread ], [ false, %6 ]
  ret i1 %.0
}